(dp0
S'35541'
p1
I693
sS'23992'
p2
I463
sS'74708'
p3
I1401
sS'84917'
p4
I1597
sS'69950'
p5
I1310
sS'52867'
p6
I1001
sS'78854'
p7
I1474
sS'88716'
p8
I1651
sS'26579'
p9
I511
sS'32839'
p10
I645
sS'93902'
p11
I1744
sS'92871'
p12
I1727
sS'92302'
p13
I1716
sS'107862'
p14
I141
sS'51283'
p15
I973
sS'16679'
p16
I331
sS'96551'
p17
I1792
sS'74019'
p18
I1389
sS'61193'
p19
I1146
sS'6157'
p20
I1154
sS'42450'
p21
I812
sS'12708'
p22
I205
sS'22005'
p23
I424
sS'6796'
p24
I1272
sS'96154'
p25
I1787
sS'93437'
p26
I1738
sS'86217'
p27
I1616
sS'57722'
p28
I1087
sS'2315'
p29
I447
sS'23849'
p30
I460
sS'64705'
p31
I1221
sS'69550'
p32
I1300
sS'16495'
p33
I324
sS'56055'
p34
I1061
sS'17659'
p35
I354
sS'36200'
p36
I703
sS'32016'
p37
I621
sS'80599'
p38
I1515
sS'25116'
p39
I484
sS'61992'
p40
I1167
sS'52394'
p41
I991
sS'6585'
p42
I1242
sS'51114'
p43
I970
sS'63930'
p44
I1202
sS'104064'
p45
I69
sS'69777'
p46
I1305
sS'11765'
p47
I175
sS'65800'
p48
I1241
sS'9528'
p49
I1771
sS'101946'
p50
I24
sS'99207'
p51
I1849
sS'49764'
p52
I938
sS'7865'
p53
I1468
sS'21619'
p54
I417
sS'46798'
p55
I882
sS'64050'
p56
I1206
sS'42630'
p57
I814
sS'94028'
p58
I1748
sS'102444'
p59
I36
sS'84124'
p60
I1582
sS'36332'
p61
I704
sS'9411'
p62
I1751
sS'57505'
p63
I1085
sS'105714'
p64
I101
sS'10634'
p65
I114
sS'12125'
p66
I190
sS'46319'
p67
I876
sS'14138'
p68
I255
sS'27994'
p69
I546
sS'106572'
p70
I120
sS'49300'
p71
I930
sS'62461'
p72
I1177
sS'99512'
p73
I1857
sS'7268'
p74
I1360
sS'3513'
p75
I683
sS'37550'
p76
I725
sS'68174'
p77
I1276
sS'36844'
p78
I714
sS'85506'
p79
I1604
sS'54425'
p80
I1035
sS'26974'
p81
I521
sS'54772'
p82
I1043
sS'71822'
p83
I1343
sS'10567'
p84
I100
sS'68288'
p85
I1278
sS'20410'
p86
I399
sS'3203'
p87
I622
sS'58181'
p88
I1096
sS'63207'
p89
I1186
sS'83903'
p90
I1577
sS'18924'
p91
I375
sS'68918'
p92
I1289
sS'54173'
p93
I1029
sS'44334'
p94
I840
sS'89615'
p95
I1669
sS'28564'
p96
I560
sS'17829'
p97
I359
sS'75540'
p98
I1418
sS'41568'
p99
I800
sS'87693'
p100
I1637
sS'58699'
p101
I1103
sS'83619'
p102
I1569
sS'37950'
p103
I731
sS'1751'
p104
I350
sS'72631'
p105
I1358
sS'92465'
p106
I1721
sS'103398'
p107
I58
sS'40562'
p108
I777
sS'18144'
p109
I363
sS'87615'
p110
I1635
sS'39593'
p111
I760
sS'47696'
p112
I899
sS'50255'
p113
I950
sS'11166'
p114
I157
sS'67744'
p115
I1268
sS'88153'
p116
I1646
sS'92890'
p117
I1728
sS'72255'
p118
I1351
sS'76885'
p119
I1434
sS'66163'
p120
I1248
sS'34047'
p121
I668
sS'8386'
p122
I1576
sS'13973'
p123
I249
sS'89549'
p124
I1667
sS'12874'
p125
I211
sS'12837'
p126
I209
sS'8016'
p127
I1502
sS'97841'
p128
I1820
sS'26623'
p129
I512
sS'15049'
p130
I283
sS'73727'
p131
I1382
sS'88964'
p132
I1656
sS'28219'
p133
I552
sS'66509'
p134
I1252
sS'50415'
p135
I953
sS'3836'
p136
I735
sS'73473'
p137
I1374
sS'4031'
p138
I773
sS'10885'
p139
I146
sS'76972'
p140
I1437
sS'13724'
p141
I241
sS'12353'
p142
I194
sS'23650'
p143
I456
sS'88706'
p144
I1650
sS'87974'
p145
I1644
sS'91516'
p146
I1703
sS'92318'
p147
I1717
sS'103371'
p148
I57
sS'107385'
p149
I135
sS'372'
p150
I719
sS'35848'
p151
I697
sS'98483'
p152
I1834
sS'60349'
p153
I1129
sS'25723'
p154
I492
sS'6141'
p155
I1151
sS'77754'
p156
I1451
sS'35440'
p157
I690
sS'2300'
p158
I443
sS'101624'
p159
I18
sS'27380'
p160
I532
sS'27143'
p161
I526
sS'61522'
p162
I1153
sS'55995'
p163
I1060
sS'104274'
p164
I73
sS'92690'
p165
I1726
sS'26497'
p166
I509
sS'3743'
p167
I723
sS'8567'
p168
I1608
sS'242'
p169
I466
sS'100957'
p170
I7
sS'75998'
p171
I1426
sS'77620'
p172
I1449
sS'81344'
p173
I1528
sS'12003'
p174
I185
sS'19560'
p175
I386
sS'64607'
p176
I1218
sS'43046'
p177
I822
sS'105638'
p178
I98
sS'97458'
p179
I1810
sS'46279'
p180
I875
sS'107521'
p181
I137
sS'20889'
p182
I405
sS'63696'
p183
I1197
sS'93917'
p184
I1745
sS'41911'
p185
I807
sS'17531'
p186
I351
sS'64027'
p187
I1203
sS'79828'
p188
I1494
sS'74225'
p189
I1392
sS'2055'
p190
I402
sS'4828'
p191
I907
sS'84115'
p192
I1581
sS'9402'
p193
I1747
sS'10620'
p194
I111
sS'26036'
p195
I501
sS'53033'
p196
I1005
sS'53346'
p197
I1015
sS'24096'
p198
I465
sS'45650'
p199
I868
sS'90070'
p200
I1677
sS'48552'
p201
I917
sS'75061'
p202
I1407
sS'37786'
p203
I727
sS'75265'
p204
I1412
sS'16935'
p205
I336
sS'54968'
p206
I1047
sS'36549'
p207
I707
sS'21733'
p208
I420
sS'7212'
p209
I1348
sS'60654'
p210
I1135
sS'91730'
p211
I1708
sS'53725'
p212
I1020
sS'45276'
p213
I860
sS'78389'
p214
I1461
sS'14653'
p215
I269
sS'14876'
p216
I276
sS'102362'
p217
I33
sS'70831'
p218
I1326
sS'71831'
p219
I1344
sS'70838'
p220
I1327
sS'48429'
p221
I911
sS'77527'
p222
I1447
sS'20462'
p223
I400
sS'49408'
p224
I934
sS'3233'
p225
I630
sS'49792'
p226
I940
sS'13062'
p227
I217
sS'79397'
p228
I1483
sS'7328'
p229
I1371
sS'45095'
p230
I854
sS'2879'
p231
I564
sS'96426'
p232
I1791
sS'27541'
p233
I537
sS'106739'
p234
I123
sS'108035'
p235
I143
sS'20269'
p236
I397
sS'45897'
p237
I870
sS'62254'
p238
I1172
sS'7066'
p239
I1323
sS'68581'
p240
I1284
sS'41685'
p241
I802
sS'33225'
p242
I654
sS'40958'
p243
I786
sS'78721'
p244
I1471
sS'15905'
p245
I310
sS'1149'
p246
I165
sS'8622'
p247
I1617
sS'59557'
p248
I1117
sS'92419'
p249
I1720
sS'86730'
p250
I1624
sS'106931'
p251
I128
sS'83734'
p252
I1574
sS'8716'
p253
I1629
sS'91479'
p254
I1702
sS'79706'
p255
I1489
sS'94482'
p256
I1755
sS'13843'
p257
I245
sS'72718'
p258
I1361
sS'77563'
p259
I1448
sS'105832'
p260
I105
sS'12829'
p261
I208
sS'15298'
p262
I292
sS'51444'
p263
I977
sS'35921'
p264
I699
sS'65077'
p265
I1228
sS'11568'
p266
I167
sS'8445'
p267
I1587
sS'72405'
p268
I1352
sS'89391'
p269
I1663
sS'96313'
p270
I1790
sS'82425'
p271
I1545
sS'13994'
p272
I250
sS'11367'
p273
I161
sS'26550'
p274
I510
sS'69405'
p275
I1298
sS'100149'
p276
I1
sS'50064'
p277
I947
sS'92631'
p278
I1725
sS'24770'
p279
I478
sS'55034'
p280
I1048
sS'39164'
p281
I752
sS'104398'
p282
I77
sS'25738'
p283
I493
sS'19354'
p284
I382
sS'65215'
p285
I1232
sS'81511'
p286
I1532
sS'64859'
p287
I1225
sS'75204'
p288
I1410
sS'16016'
p289
I312
sS'24608'
p290
I476
sS'11295'
p291
I160
sS'17633'
p292
I353
sS'21127'
p293
I409
sS'69355'
p294
I1297
sS'259'
p295
I498
sS'75986'
p296
I1425
sS'16727'
p297
I332
sS'69755'
p298
I1304
sS'80773'
p299
I1519
sS'31809'
p300
I616
sS'12034'
p301
I187
sS'81195'
p302
I1527
sS'104003'
p303
I68
sS'82887'
p304
I1549
sS'53194'
p305
I1010
sS'97661'
p306
I1815
sS'75182'
p307
I1409
sS'63680'
p308
I1196
sS'16834'
p309
I333
sS'61572'
p310
I1155
sS'80488'
p311
I1512
sS'13293'
p312
I229
sS'60064'
p313
I1126
sS'7843'
p314
I1463
sS'21634'
p315
I418
sS'102420'
p316
I35
sS'70006'
p317
I1311
sS'61823'
p318
I1161
sS'32598'
p319
I638
sS'6195'
p320
I1166
sS'11636'
p321
I169
sS'95685'
p322
I1778
sS'49896'
p323
I944
sS'96951'
p324
I1804
sS'49329'
p325
I931
sS'3539'
p326
I688
sS'52751'
p327
I999
sS'99536'
p328
I1858
sS'60465'
p329
I1131
sS'14889'
p330
I277
sS'80559'
p331
I1514
sS'36829'
p332
I713
sS'70647'
p333
I1322
sS'18893'
p334
I374
sS'90113'
p335
I1678
sS'26954'
p336
I520
sS'102379'
p337
I34
sS'80959'
p338
I1523
sS'9766'
p339
I1814
sS'57059'
p340
I1079
sS'96883'
p341
I1801
sS'3220'
p342
I627
sS'98932'
p343
I1840
sS'33457'
p344
I659
sS'11962'
p345
I183
sS'39694'
p346
I763
sS'12925'
p347
I213
sS'41788'
p348
I804
sS'40306'
p349
I772
sS'48054'
p350
I906
sS'58300'
p351
I1097
sS'5478'
p352
I1044
sS'1774'
p353
I357
sS'7050'
p354
I1320
sS'78003'
p355
I1453
sS'47238'
p356
I890
sS'6995'
p357
I1309
sS'72099'
p358
I1347
sS'39375'
p359
I756
sS'15116'
p360
I287
sS'11109'
p361
I154
sS'1557'
p362
I301
sS'57'
p363
I1077
sS'79280'
p364
I1481
sS'3032'
p365
I595
sS'71775'
p366
I1342
sS'68932'
p367
I1290
sS'31749'
p368
I615
sS'67762'
p369
I1269
sS'538'
p370
I1021
sS'79511'
p371
I1486
sS'89838'
p372
I1672
sS'8039'
p373
I1508
sS'47658'
p374
I898
sS'5606'
p375
I1062
sS'9928'
p376
I1851
sS'27706'
p377
I541
sS'89201'
p378
I1660
sS'12587'
p379
I200
sS'34537'
p380
I673
sS'44917'
p381
I851
sS'6510'
p382
I1229
sS'91998'
p383
I1713
sS'95213'
p384
I1768
sS'107072'
p385
I131
sS'79357'
p386
I1482
sS'427'
p387
I817
sS'77133'
p388
I1441
sS'3817'
p389
I732
sS'103913'
p390
I67
sS'75110'
p391
I1408
sS'8452'
p392
I1589
sS'43204'
p393
I825
sS'93594'
p394
I1740
sS'50698'
p395
I960
sS'30962'
p396
I606
sS'103593'
p397
I61
sS'91446'
p398
I1699
sS'94964'
p399
I1762
sS'55267'
p400
I1050
sS'25702'
p401
I491
sS'32666'
p402
I640
sS'16643'
p403
I330
sS'65191'
p404
I1231
sS'51631'
p405
I981
sS'64826'
p406
I1224
sS'4742'
p407
I893
sS'43335'
p408
I828
sS'13676'
p409
I238
sS'10990'
p410
I149
sS'75561'
p411
I1419
sS'5863'
p412
I1102
sS'82093'
p413
I1538
sS'65446'
p414
I1235
sS'101198'
p415
I12
sS'98127'
p416
I1828
sS'74110'
p417
I1391
sS'12025'
p418
I186
sS'74444'
p419
I1398
sS'22728'
p420
I439
sS'90877'
p421
I1689
sS'82897'
p422
I1550
sS'38984'
p423
I747
sS'97691'
p424
I1816
sS'59264'
p425
I1114
sS'98720'
p426
I1837
sS'64555'
p427
I1216
sS'20719'
p428
I404
sS'104743'
p429
I81
sS'90582'
p430
I1687
sS'2437'
p431
I472
sS'10949'
p432
I148
sS'101084'
p433
I11
sS'97582'
p434
I1812
sS'6186'
p435
I1162
sS'56067'
p436
I1063
sS'46674'
p437
I879
sS'64486'
p438
I1214
sS'81706'
p439
I1534
sS'10178'
p440
I20
sS'9600'
p441
I1784
sS'90290'
p442
I1682
sS'52565'
p443
I995
sS'37567'
p444
I726
sS'44010'
p445
I835
sS'10376'
p446
I63
sS'5046'
p447
I955
sS'7948'
p448
I1484
sS'38579'
p449
I739
sS'16915'
p450
I335
sS'3789'
p451
I730
sS'8997'
p452
I1675
sS'42950'
p453
I821
sS'45524'
p454
I866
sS'102562'
p455
I38
sS'63896'
p456
I1201
sS'48330'
p457
I908
sS'11829'
p458
I178
sS'14677'
p459
I271
sS'84620'
p460
I1594
sS'45748'
p461
I869
sS'78404'
p462
I1462
sS'10510'
p463
I91
sS'54691'
p464
I1042
sS'83447'
p465
I1565
sS'13084'
p466
I218
sS'3257'
p467
I637
sS'819'
p468
I1535
sS'33422'
p469
I658
sS'54505'
p470
I1039
sS'99093'
p471
I1846
sS'78257'
p472
I1458
sS'41379'
p473
I795
sS'70218'
p474
I1316
sS'27832'
p475
I543
sS'3337'
p476
I657
sS'28539'
p477
I558
sS'5186'
p478
I985
sS'80837'
p479
I1520
sS'59799'
p480
I1122
sS'1701'
p481
I340
sS'10192'
p482
I23
sS'30511'
p483
I598
sS'37186'
p484
I718
sS'38767'
p485
I742
sS'94771'
p486
I1758
sS'41150'
p487
I789
sS'36616'
p488
I709
sS'73870'
p489
I1385
sS'102185'
p490
I29
sS'37213'
p491
I720
sS'89712'
p492
I1670
sS'102867'
p493
I43
sS'59577'
p494
I1118
sS'14323'
p495
I259
sS'72574'
p496
I1357
sS'24571'
p497
I475
sS'2989'
p498
I583
sS'91458'
p499
I1701
sS'15583'
p500
I302
sS'521'
p501
I987
sS'61034'
p502
I1143
sS'44166'
p503
I837
sS'1016'
p504
I17
sS'78108'
p505
I1454
sS'59979'
p506
I1125
sS'70894'
p507
I1328
sS'66428'
p508
I1251
sS'73515'
p509
I1375
sS'67794'
p510
I1270
sS'50195'
p511
I948
sS'12847'
p512
I210
sS'11001'
p513
I150
sS'35908'
p514
I698
sS'72646'
p515
I1359
sS'34183'
p516
I669
sS'29627'
p517
I579
sS'76529'
p518
I1428
sS'23486'
p519
I453
sS'52828'
p520
I1000
sS'101721'
p521
I19
sS'72465'
p522
I1353
sS'92341'
p523
I1718
sS'92616'
p524
I1724
sS'27006'
p525
I522
sS'87923'
p526
I1642
sS'59208'
p527
I1113
sS'7558'
p528
I1420
sS'106631'
p529
I121
sS'74053'
p530
I1390
sS'19622'
p531
I387
sS'19334'
p532
I381
sS'32617'
p533
I639
sS'75507'
p534
I1417
sS'13642'
p535
I237
sS'76837'
p536
I1433
sS'43301'
p537
I827
sS'55301'
p538
I1051
sS'51488'
p539
I978
sS'100232'
p540
I2
sS'5817'
p541
I1095
sS'32724'
p542
I642
sS'65306'
p543
I1233
sS'82979'
p544
I1552
sS'52355'
p545
I990
sS'17340'
p546
I346
sS'96249'
p547
I1788
sS'25395'
p548
I486
sS'92968'
p549
I1729
sS'233'
p550
I449
sS'12690'
p551
I204
sS'98048'
p552
I1826
sS'10831'
p553
I145
sS'81173'
p554
I1526
sS'27229'
p555
I530
sS'147'
p556
I272
sS'86875'
p557
I1626
sS'81392'
p558
I1529
sS'39968'
p559
I768
sS'52177'
p560
I988
sS'102977'
p561
I47
sS'28153'
p562
I550
sS'105751'
p563
I102
sS'74271'
p564
I1394
sS'105759'
p565
I103
sS'26261'
p566
I505
sS'43164'
p567
I824
sS'101470'
p568
I16
sS'2716'
p569
I527
sS'62938'
p570
I1183
sS'53312'
p571
I1014
sS'84382'
p572
I1586
sS'99392'
p573
I1855
sS'10691'
p574
I127
sS'9167'
p575
I1707
sS'39813'
p576
I765
sS'5075'
p577
I962
sS'105373'
p578
I94
sS'2151'
p579
I415
sS'9566'
p580
I1776
sS'46220'
p581
I874
sS'10740'
p582
I136
sS'53225'
p583
I1011
sS'104800'
p584
I83
sS'10523'
p585
I92
sS'48457'
p586
I912
sS'54208'
p587
I1030
sS'14666'
p588
I270
sS'1952'
p589
I385
sS'63248'
p590
I1188
sS'14067'
p591
I253
sS'106060'
p592
I108
sS'14998'
p593
I281
sS'70202'
p594
I1315
sS'36971'
p595
I716
sS'80443'
p596
I1510
sS'71371'
p597
I1336
sS'13251'
p598
I227
sS'67549'
p599
I1266
sS'84521'
p600
I1590
sS'76680'
p601
I1431
sS'15624'
p602
I303
sS'9016'
p603
I1680
sS'10235'
p604
I32
sS'54333'
p605
I1034
sS'14206'
p606
I256
sS'28526'
p607
I557
sS'5251'
p608
I993
sS'49850'
p609
I943
sS'21503'
p610
I414
sS'67148'
p611
I1264
sS'48586'
p612
I918
sS'96991'
p613
I1805
sS'40146'
p614
I771
sS'86086'
p615
I1613
sS'78755'
p616
I1472
sS'15232'
p617
I290
sS'54022'
p618
I1027
sS'18349'
p619
I365
sS'79789'
p620
I1493
sS'9578'
p621
I1780
sS'39299'
p622
I753
sS'87652'
p623
I1636
sS'89921'
p624
I1674
sS'18745'
p625
I371
sS'40324'
p626
I774
sS'26654'
p627
I514
sS'47810'
p628
I901
sS'29921'
p629
I584
sS'4188'
p630
I806
sS'620'
p631
I1168
sS'56684'
p632
I1071
sS'30018'
p633
I586
sS'50854'
p634
I965
sS'8291'
p635
I1551
sS'15554'
p636
I299
sS'95237'
p637
I1769
sS'107005'
p638
I130
sS'44978'
p639
I852
sS'106507'
p640
I117
sS'50323'
p641
I951
sS'29658'
p642
I580
sS'47252'
p643
I891
sS'8612'
p644
I1614
sS'17884'
p645
I361
sS'90145'
p646
I1679
sS'55466'
p647
I1053
sS'89454'
p648
I1665
sS'23723'
p649
I459
sS'77247'
p650
I1443
sS'34600'
p651
I675
sS'6403'
p652
I1204
sS'73580'
p653
I1378
sS'12476'
p654
I197
sS'15318'
p655
I294
sS'82141'
p656
I1539
sS'61308'
p657
I1149
sS'28674'
p658
I563
sS'93114'
p659
I1734
sS'103809'
p660
I64
sS'19320'
p661
I379
sS'35480'
p662
I691
sS'31942'
p663
I618
sS'4762'
p664
I896
sS'35646'
p665
I694
sS'28870'
p666
I567
sS'86268'
p667
I1618
sS'22526'
p668
I433
sS'77066'
p669
I1440
sS'104231'
p670
I71
sS'98636'
p671
I1836
sS'69836'
p672
I1307
sS'64801'
p673
I1223
sS'58150'
p674
I1094
sS'5802'
p675
I1092
sS'32910'
p676
I647
sS'55843'
p677
I1058
sS'16205'
p678
I320
sS'55512'
p679
I1054
sS'32738'
p680
I643
sS'32282'
p681
I629
sS'26183'
p682
I503
sS'22743'
p683
I440
sS'56796'
p684
I1074
sS'43554'
p685
I830
sS'46052'
p686
I873
sS'2232'
p687
I430
sS'11797'
p688
I177
sS'16181'
p689
I318
sS'101063'
p690
I10
sS'5937'
p691
I1115
sS'51149'
p692
I971
sS'64467'
p693
I1212
sS'93000'
p694
I1730
sS'57681'
p695
I1086
sS'21862'
p696
I422
sS'96703'
p697
I1798
sS'64579'
p698
I1217
sS'53161'
p699
I1009
sS'98097'
p700
I1827
sS'106272'
p701
I113
sS'19812'
p702
I390
sS'34652'
p703
I676
sS'90925'
p704
I1690
sS'61876'
p705
I1163
sS'85268'
p706
I1600
sS'56089'
p707
I1064
sS'57359'
p708
I1083
sS'27926'
p709
I545
sS'2701'
p710
I523
sS'73653'
p711
I1380
sS'10680'
p712
I125
sS'60690'
p713
I1137
sS'80036'
p714
I1500
sS'56885'
p715
I1075
sS'16972'
p716
I338
sS'84023'
p717
I1579
sS'1822'
p718
I364
sS'53949'
p719
I1025
sS'97497'
p720
I1811
sS'4977'
p721
I939
sS'104768'
p722
I82
sS'36746'
p723
I712
sS'53234'
p724
I1013
sS'2952'
p725
I576
sS'90404'
p726
I1683
sS'104830'
p727
I84
sS'70307'
p728
I1318
sS'68017'
p729
I1274
sS'98963'
p730
I1841
sS'83954'
p731
I1578
sS'45299'
p732
I861
sS'106690'
p733
I122
sS'3279'
p734
I644
sS'94632'
p735
I1756
sS'78238'
p736
I1457
sS'8883'
p737
I1653
sS'13229'
p738
I226
sS'102218'
p739
I30
sS'13222'
p740
I225
sS'11932'
p741
I182
sS'54307'
p742
I1033
sS'14944'
p743
I278
sS'86468'
p744
I1621
sS'5584'
p745
I1057
sS'44568'
p746
I846
sS'70781'
p747
I1324
sS'107636'
p748
I138
sS'74793'
p749
I1402
sS'28623'
p750
I562
sS'40917'
p751
I785
sS'95944'
p752
I1783
sS'30574'
p753
I600
sS'27421'
p754
I533
sS'68308'
p755
I1279
sS'788'
p756
I1473
sS'84603'
p757
I1593
sS'78341'
p758
I1460
sS'40599'
p759
I778
sS'83375'
p760
I1562
sS'30712'
p761
I602
sS'105986'
p762
I107
sS'48485'
p763
I914
sS'79744'
p764
I1490
sS'58771'
p765
I1105
sS'35010'
p766
I680
sS'30378'
p767
I596
sS'44368'
p768
I841
sS'1033'
p769
I55
sS'40683'
p770
I781
sS'66681'
p771
I1256
sS'31020'
p772
I607
sS'72207'
p773
I1350
sS'15012'
p774
I282
sS'92564'
p775
I1723
sS'26679'
p776
I515
sS'15494'
p777
I297
sS'1455'
p778
I265
sS'1103'
p779
I151
sS'28061'
p780
I548
sS'13791'
p781
I243
sS'95152'
p782
I1767
sS'4089'
p783
I784
sS'8408'
p784
I1580
sS'27025'
p785
I524
sS'78592'
p786
I1466
sS'66844'
p787
I1261
sS'100456'
p788
I3
sS'15307'
p789
I293
sS'50538'
p790
I956
sS'73623'
p791
I1379
sS'7779'
p792
I1452
sS'3914'
p793
I751
sS'92383'
p794
I1719
sS'13469'
p795
I234
sS'88649'
p796
I1648
sS'28843'
p797
I566
sS'8315'
p798
I1556
sS'82284'
p799
I1541
sS'23351'
p800
I451
sS'4795'
p801
I903
sS'82770'
p802
I1548
sS'4154'
p803
I799
sS'56419'
p804
I1067
sS'85279'
p805
I1601
sS'60840'
p806
I1141
sS'28115'
p807
I549
sS'19009'
p808
I376
sS'103256'
p809
I53
sS'96288'
p810
I1789
sS'35259'
p811
I685
sS'96666'
p812
I1797
sS'56637'
p813
I1070
sS'77671'
p814
I1450
sS'69797'
p815
I1306
sS'73317'
p816
I1372
sS'38943'
p817
I746
sS'12074'
p818
I188
sS'88241'
p819
I1647
sS'49159'
p820
I927
sS'92017'
p821
I1714
sS'16162'
p822
I317
sS'61268'
p823
I1148
sS'104354'
p824
I76
sS'82359'
p825
I1543
sS'31994'
p826
I619
sS'81484'
p827
I1531
sS'65563'
p828
I1237
sS'49058'
p829
I924
sS'56742'
p830
I1072
sS'8743'
p831
I1632
sS'11721'
p832
I173
sS'57122'
p833
I1080
sS'74254'
p834
I1393
sS'3646'
p835
I705
sS'21073'
p836
I408
sS'25515'
p837
I489
sS'45428'
p838
I863
sS'90442'
p839
I1685
sS'94282'
p840
I1753
sS'15211'
p841
I289
sS'11475'
p842
I164
sS'2393'
p843
I461
sS'85364'
p844
I1602
sS'46888'
p845
I884
sS'10327'
p846
I54
sS'99379'
p847
I1854
sS'7978'
p848
I1492
sS'16419'
p849
I322
sS'9145'
p850
I1700
sS'74322'
p851
I1395
sS'6263'
p852
I1180
sS'61910'
p853
I1164
sS'42186'
p854
I809
sS'90629'
p855
I1688
sS'1856'
p856
I367
sS'6067'
p857
I1136
sS'80282'
p858
I1504
sS'9548'
p859
I1772
sS'12098'
p860
I189
sS'913'
p861
I1697
sS'105425'
p862
I95
sS'62356'
p863
I1175
sS'48472'
p864
I913
sS'14048'
p865
I252
sS'1933'
p866
I380
sS'63519'
p867
I1192
sS'62591'
p868
I1179
sS'20104'
p869
I392
sS'60735'
p870
I1139
sS'36132'
p871
I702
sS'71312'
p872
I1334
sS'50556'
p873
I957
sS'53844'
p874
I1023
sS'58346'
p875
I1098
sS'41505'
p876
I798
sS'99026'
p877
I1843
sS'9198'
p878
I1712
sS'10253'
p879
I37
sS'38719'
p880
I741
sS'37243'
p881
I721
sS'30548'
p882
I599
sS'83844'
p883
I1575
sS'24009'
p884
I464
sS'20614'
p885
I403
sS'33703'
p886
I662
sS'41183'
p887
I790
sS'15800'
p888
I308
sS'85813'
p889
I1610
sS'24346'
p890
I471
sS'41610'
p891
I801
sS'29427'
p892
I572
sS'54005'
p893
I1026
sS'76734'
p894
I1432
sS'6888'
p895
I1288
sS'45974'
p896
I872
sS'27443'
p897
I534
sS'79770'
p898
I1491
sS'12205'
p899
I192
sS'40878'
p900
I783
sS'67528'
p901
I1265
sS'29415'
p902
I571
sS'4363'
p903
I832
sS'23100'
p904
I445
sS'67984'
p905
I1273
sS'5648'
p906
I1068
sS'26642'
p907
I513
sS'30815'
p908
I603
sS'43502'
p909
I829
sS'39053'
p910
I748
sS'8068'
p911
I1516
sS'59180'
p912
I1112
sS'103005'
p913
I48
sS'1113'
p914
I155
sS'8670'
p915
I1623
sS'83181'
p916
I1557
sS'42679'
p917
I816
sS'13783'
p918
I242
sS'23135'
p919
I446
sS'47053'
p920
I887
sS'50941'
p921
I967
sS'66073'
p922
I1247
sS'41201'
p923
I791
sS'51780'
p924
I984
sS'485'
p925
I915
sS'27697'
p926
I540
sS'50012'
p927
I946
sS'103644'
p928
I62
sS'100111'
p929
I0
sS'51543'
p930
I979
sS'12417'
p931
I196
sS'51017'
p932
I968
sS'25835'
p933
I496
sS'7740'
p934
I1445
sS'38220'
p935
I733
sS'50838'
p936
I964
sS'31039'
p937
I608
sS'77046'
p938
I1438
sS'95874'
p939
I1781
sS'22507'
p940
I432
sS'61108'
p941
I1144
sS'88658'
p942
I1649
sS'103866'
p943
I65
sS'23367'
p944
I452
sS'61581'
p945
I1156
sS'8095'
p946
I1522
sS'61588'
p947
I1157
sS'11260'
p948
I158
sS'12529'
p949
I199
sS'73941'
p950
I1386
sS'73128'
p951
I1367
sS'32715'
p952
I641
sS'60219'
p953
I1128
sS'74843'
p954
I1403
sS'97951'
p955
I1822
sS'97386'
p956
I1808
sS'22163'
p957
I427
sS'6092'
p958
I1142
sS'43570'
p959
I831
sS'12667'
p960
I203
sS'6652'
p961
I1253
sS'10808'
p962
I144
sS'96012'
p963
I1785
sS'27275'
p964
I531
sS'100668'
p965
I5
sS'75324'
p966
I1413
sS'63633'
p967
I1195
sS'79882'
p968
I1495
sS'17555'
p969
I352
sS'105096'
p970
I90
sS'65775'
p971
I1240
sS'14077'
p972
I254
sS'64687'
p973
I1220
sS'90433'
p974
I1684
sS'104140'
p975
I70
sS'101421'
p976
I15
sS'21994'
p977
I423
sS'2549'
p978
I488
sS'52303'
p979
I989
sS'49839'
p980
I942
sS'43978'
p981
I834
sS'39840'
p982
I766
sS'46549'
p983
I878
sS'9152'
p984
I1704
sS'105789'
p985
I104
sS'70094'
p986
I1313
sS'16953'
p987
I337
sS'17130'
p988
I342
sS'9486'
p989
I1759
sS'80502'
p990
I1513
sS'79959'
p991
I1497
sS'101331'
p992
I14
sS'53147'
p993
I1008
sS'80298'
p994
I1505
sS'14030'
p995
I251
sS'62346'
p996
I1174
sS'2611'
p997
I502
sS'85755'
p998
I1609
sS'75445'
p999
I1415
sS'95705'
p1000
I1779
sS'49268'
p1001
I929
sS'48396'
p1002
I910
sS'83408'
p1003
I1564
sS'60725'
p1004
I1138
sS'21682'
p1005
I419
sS'3454'
p1006
I674
sS'78214'
p1007
I1456
sS'45368'
p1008
I862
sS'41330'
p1009
I793
sS'42649'
p1010
I815
sS'102014'
p1011
I25
sS'14966'
p1012
I279
sS'104968'
p1013
I88
sS'26876'
p1014
I518
sS'8905'
p1015
I1657
sS'59756'
p1016
I1121
sS'106147'
p1017
I110
sS'13161'
p1018
I221
sS'29712'
p1019
I581
sS'95671'
p1020
I1777
sS'54255'
p1021
I1032
sS'33746'
p1022
I663
sS'68476'
p1023
I1282
sS'68693'
p1024
I1286
sS'29888'
p1025
I582
sS'83355'
p1026
I1560
sS'78549'
p1027
I1465
sS'47462'
p1028
I894
sS'80743'
p1029
I1518
sS'7175'
p1030
I1341
sS'15784'
p1031
I307
sS'2570'
p1032
I490
sS'6897'
p1033
I1291
sS'91381'
p1034
I1698
sS'14497'
p1035
I264
sS'58758'
p1036
I1104
sS'45945'
p1037
I871
sS'89295'
p1038
I1662
sS'79164'
p1039
I1477
sS'44382'
p1040
I842
sS'16394'
p1041
I321
sS'77302'
p1042
I1444
sS'12885'
p1043
I212
sS'66662'
p1044
I1255
sS'106536'
p1045
I118
sS'37874'
p1046
I729
sS'40647'
p1047
I780
sS'11042'
p1048
I152
sS'15565'
p1049
I300
sS'8794'
p1050
I1643
sS'99481'
p1051
I1856
sS'95066'
p1052
I1765
sS'24242'
p1053
I469
sS'28049'
p1054
I547
sS'1476'
p1055
I275
sS'31602'
p1056
I614
sS'28594'
p1057
I561
sS'23026'
p1058
I444
sS'73797'
p1059
I1384
sS'53410'
p1060
I1016
sS'63050'
p1061
I1185
sS'48810'
p1062
I922
sS'23595'
p1063
I455
sS'17430'
p1064
I348
sS'93708'
p1065
I1741
sS'13936'
p1066
I248
sS'51579'
p1067
I980
sS'103307'
p1068
I56
sS'79237'
p1069
I1479
sS'103491'
p1070
I59
sS'89869'
p1071
I1673
sS'66713'
p1072
I1257
sS'5266'
p1073
I997
sS'65160'
p1074
I1230
sS'32542'
p1075
I636
sS'11274'
p1076
I159
sS'8336'
p1077
I1561
sS'48597'
p1078
I919
sS'72551'
p1079
I1355
sS'40387'
p1080
I775
sS'39077'
p1081
I749
sS'51379'
p1082
I976
sS'23687'
p1083
I458
sS'4135'
p1084
I794
sS'9909'
p1085
I1845
sS'32438'
p1086
I634
sS'94012'
p1087
I1746
sS'75927'
p1088
I1424
sS'22791'
p1089
I441
sS'16090'
p1090
I315
sS'93030'
p1091
I1731
sS'84972'
p1092
I1598
sS'6663'
p1093
I1254
sS'69249'
p1094
I1295
sS'51757'
p1095
I983
sS'32387'
p1096
I632
sS'65900'
p1097
I1243
sS'99354'
p1098
I1853
sS'101787'
p1099
I21
sS'70991'
p1100
I1329
sS'106201'
p1101
I112
sS'56760'
p1102
I1073
sS'69062'
p1103
I1292
sS'24802'
p1104
I479
sS'46715'
p1105
I880
sS'4549'
p1106
I864
sS'21050'
p1107
I407
sS'13434'
p1108
I233
sS'19688'
p1109
I389
sS'11699'
p1110
I171
sS'970'
p1111
I1806
sS'11690'
p1112
I170
sS'98179'
p1113
I1829
sS'96132'
p1114
I1786
sS'46409'
p1115
I877
sS'97403'
p1116
I1809
sS'17308'
p1117
I345
sS'81597'
p1118
I1533
sS'98206'
p1119
I1830
sS'64432'
p1120
I1211
sS'27910'
p1121
I544
sS'10654'
p1122
I119
sS'13320'
p1123
I230
sS'38853'
p1124
I744
sS'75749'
p1125
I1422
sS'45573'
p1126
I867
sS'36735'
p1127
I711
sS'102824'
p1128
I42
sS'61937'
p1129
I1165
sS'6047'
p1130
I1132
sS'97600'
p1131
I1813
sS'42725'
p1132
I818
sS'63285'
p1133
I1189
sS'20949'
p1134
I406
sS'99132'
p1135
I1847
sS'41291'
p1136
I792
sS'5108'
p1137
I969
sS'46970'
p1138
I886
sS'21307'
p1139
I412
sS'64239'
p1140
I1208
sS'98998'
p1141
I1842
sS'52621'
p1142
I996
sS'97216'
p1143
I1807
sS'44712'
p1144
I847
sS'13214'
p1145
I224
sS'33163'
p1146
I653
sS'78201'
p1147
I1455
sS'2022'
p1148
I395
sS'85166'
p1149
I1599
sS'36493'
p1150
I706
sS'84568'
p1151
I1592
sS'53464'
p1152
I1017
sS'14974'
p1153
I280
sS'52876'
p1154
I1002
sS'83690'
p1155
I1572
sS'34860'
p1156
I679
sS'62713'
p1157
I1181
sS'9054'
p1158
I1686
sS'53668'
p1159
I1019
sS'87897'
p1160
I1641
sS'83503'
p1161
I1566
sS'80083'
p1162
I1501
sS'7506'
p1163
I1406
sS'39674'
p1164
I762
sS'49816'
p1165
I941
sS'58923'
p1166
I1109
sS'90178'
p1167
I1681
sS'84365'
p1168
I1585
sS'13102'
p1169
I219
sS'14486'
p1170
I263
sS'86672'
p1171
I1622
sS'34267'
p1172
I671
sS'28459'
p1173
I556
sS'7105'
p1174
I1331
sS'65038'
p1175
I1227
sS'71598'
p1176
I1338
sS'93793'
p1177
I1742
sS'6862'
p1178
I1285
sS'95115'
p1179
I1766
sS'75015'
p1180
I1405
sS'91172'
p1181
I1695
sS'1049'
p1182
I87
sS'62398'
p1183
I1176
sS'68228'
p1184
I1277
sS'40070'
p1185
I770
sS'18785'
p1186
I372
sS'1263'
p1187
I202
sS'34001'
p1188
I667
sS'83039'
p1189
I1554
sS'95278'
p1190
I1770
sS'14579'
p1191
I266
sS'34396'
p1192
I672
sS'106833'
p1193
I126
sS'106781'
p1194
I124
sS'3122'
p1195
I610
sS'37115'
p1196
I717
sS'94895'
p1197
I1761
sS'29509'
p1198
I575
sS'68536'
p1199
I1283
sS'47923'
p1200
I902
sS'8'
p1201
I1499
sS'15991'
p1202
I311
sS'66011'
p1203
I1245
sS'4237'
p1204
I811
sS'13924'
p1205
I247
sS'89412'
p1206
I1664
sS'6919'
p1207
I1294
sS'31053'
p1208
I609
sS'31503'
p1209
I613
sS'79205'
p1210
I1478
sS'47630'
p1211
I897
sS'13191'
p1212
I222
sS'50763'
p1213
I963
sS'22563'
p1214
I435
sS'319'
p1215
I617
sS'72563'
p1216
I1356
sS'32889'
p1217
I646
sS'3943'
p1218
I758
sS'61434'
p1219
I1152
sS'6704'
p1220
I1262
sS'73962'
p1221
I1388
sS'19071'
p1222
I377
sS'51367'
p1223
I975
sS'9917'
p1224
I1848
sS'35289'
p1225
I686
sS'73144'
p1226
I1368
sS'103201'
p1227
I51
sS'16553'
p1228
I327
sS'6677'
p1229
I1259
sS'16080'
p1230
I314
sS'35518'
p1231
I692
sS'23948'
p1232
I462
sS'76912'
p1233
I1435
sS'51188'
p1234
I972
sS'97867'
p1235
I1821
sS'26305'
p1236
I506
sS'81102'
p1237
I1525
sS'22091'
p1238
I426
sS'93282'
p1239
I1735
sS'16153'
p1240
I316
sS'9845'
p1241
I1833
sS'19500'
p1242
I384
sS'41072'
p1243
I787
sS'56997'
p1244
I1076
sS'100884'
p1245
I6
sS'51985'
p1246
I986
sS'65754'
p1247
I1239
sS'98444'
p1248
I1832
sS'97723'
p1249
I1817
sS'93463'
p1250
I1739
sS'11428'
p1251
I163
sS'2367'
p1252
I457
sS'24924'
p1253
I481
sS'7290'
p1254
I1365
sS'2586'
p1255
I497
sS'7924'
p1256
I1480
sS'10313'
p1257
I49
sS'5024'
p1258
I949
sS'45497'
p1259
I865
sS'17684'
p1260
I355
sS'3728'
p1261
I722
sS'13356'
p1262
I231
sS'63762'
p1263
I1198
sS'25253'
p1264
I485
sS'4681'
p1265
I883
sS'85592'
p1266
I1607
sS'69725'
p1267
I1303
sS'80270'
p1268
I1503
sS'70182'
p1269
I1314
sS'96816'
p1270
I1800
sS'2636'
p1271
I508
sS'49482'
p1272
I935
sS'54473'
p1273
I1038
sS'37475'
p1274
I724
sS'71322'
p1275
I1335
sS'2032'
p1276
I398
sS'49394'
p1277
I933
sS'2748'
p1278
I536
sS'53870'
p1279
I1024
sS'80417'
p1280
I1509
sS'10486'
p1281
I86
sS'87192'
p1282
I1630
sS'84791'
p1283
I1595
sS'33625'
p1284
I661
sS'57956'
p1285
I1090
sS'39642'
p1286
I761
sS'54582'
p1287
I1040
sS'58602'
p1288
I1101
sS'11996'
p1289
I184
sS'71214'
p1290
I1332
sS'78303'
p1291
I1459
sS'36075'
p1292
I701
sS'41801'
p1293
I805
sS'58935'
p1294
I1110
sS'11844'
p1295
I179
sS'2961'
p1296
I578
sS'26787'
p1297
I517
sS'44451'
p1298
I844
sS'96895'
p1299
I1803
sS'14349'
p1300
I260
sS'30221'
p1301
I593
sS'15766'
p1302
I305
sS'62149'
p1303
I1170
sS'95606'
p1304
I1775
sS'99654'
p1305
I1859
sS'40001'
p1306
I769
sS'84552'
p1307
I1591
sS'84229'
p1308
I1583
sS'1094'
p1309
I147
sS'30040'
p1310
I587
sS'35030'
p1311
I681
sS'33804'
p1312
I664
sS'40625'
p1313
I779
sS'37851'
p1314
I728
sS'91764'
p1315
I1709
sS'17855'
p1316
I360
sS'24266'
p1317
I470
sS'72740'
p1318
I1362
sS'1320'
p1319
I223
sS'1328'
p1320
I228
sS'91905'
p1321
I1711
sS'8680'
p1322
I1625
sS'6452'
p1323
I1215
sS'13913'
p1324
I246
sS'87453'
p1325
I1633
sS'27065'
p1326
I525
sS'61607'
p1327
I1158
sS'15180'
p1328
I288
sS'72798'
p1329
I1364
sS'91618'
p1330
I1705
sS'38271'
p1331
I734
sS'28336'
p1332
I554
sS'28803'
p1333
I565
sS'22225'
p1334
I428
sS'302'
p1335
I591
sS'3957'
p1336
I759
sS'73688'
p1337
I1381
sS'8351'
p1338
I1567
sS'47150'
p1339
I888
sS'89083'
p1340
I1658
sS'82006'
p1341
I1536
sS'51351'
p1342
I974
sS'39091'
p1343
I750
sS'77180'
p1344
I1442
sS'95919'
p1345
I1782
sS'72481'
p1346
I1354
sS'32415'
p1347
I633
sS'107171'
p1348
I132
sS'32981'
p1349
I648
sS'16524'
p1350
I326
sS'65612'
p1351
I1238
sS'42525'
p1352
I813
sS'5947'
p1353
I1116
sS'19634'
p1354
I388
sS'45196'
p1355
I857
sS'104316'
p1356
I75
sS'26333'
p1357
I507
sS'86320'
p1358
I1619
sS'65928'
p1359
I1244
sS'88842'
p1360
I1654
sS'50603'
p1361
I958
sS'94089'
p1362
I1750
sS'32180'
p1363
I626
sS'60395'
p1364
I1130
sS'73226'
p1365
I1369
sS'25795'
p1366
I494
sS'26200'
p1367
I504
sS'86928'
p1368
I1628
sS'6111'
p1369
I1145
sS'19222'
p1370
I378
sS'69602'
p1371
I1301
sS'27466'
p1372
I535
sS'63774'
p1373
I1199
sS'17102'
p1374
I341
sS'52515'
p1375
I994
sS'9106'
p1376
I1692
sS'21148'
p1377
I410
sS'16450'
p1378
I323
sS'42250'
p1379
I810
sS'17210'
p1380
I344
sS'53118'
p1381
I1007
sS'6020'
p1382
I1127
sS'11729'
p1383
I174
sS'63556'
p1384
I1193
sS'105661'
p1385
I99
sS'62825'
p1386
I1182
sS'54461'
p1387
I1037
sS'49238'
p1388
I928
sS'64250'
p1389
I1209
sS'99246'
p1390
I1850
sS'12366'
p1391
I195
sS'33106'
p1392
I650
sS'102248'
p1393
I31
sS'3421'
p1394
I670
sS'75232'
p1395
I1411
sS'45151'
p1396
I856
sS'53806'
p1397
I1022
sS'59890'
p1398
I1124
sS'33328'
p1399
I656
sS'107686'
p1400
I139
sS'71664'
p1401
I1339
sS'54604'
p1402
I1041
sS'21566'
p1403
I416
sS'57943'
p1404
I1089
sS'42872'
p1405
I820
sS'34807'
p1406
I678
sS'63394'
p1407
I1190
sS'48520'
p1408
I916
sS'39895'
p1409
I767
sS'36667'
p1410
I710
sS'83527'
p1411
I1568
sS'10587'
p1412
I106
sS'80334'
p1413
I1506
sS'54916'
p1414
I1046
sS'11853'
p1415
I180
sS'105468'
p1416
I96
sS'102661'
p1417
I40
sS'41470'
p1418
I797
sS'33256'
p1419
I655
sS'2911'
p1420
I568
sS'44460'
p1421
I845
sS'33925'
p1422
I665
sS'89224'
p1423
I1661
sS'78535'
p1424
I1464
sS'91110'
p1425
I1693
sS'26937'
p1426
I519
sS'7122'
p1427
I1333
sS'107755'
p1428
I140
sS'40836'
p1429
I782
sS'29455'
p1430
I573
sS'59005'
p1431
I1111
sS'68086'
p1432
I1275
sS'44046'
p1433
I836
sS'68737'
p1434
I1287
sS'30103'
p1435
I589
sS'84239'
p1436
I1584
sS'8232'
p1437
I1542
sS'66388'
p1438
I1250
sS'76447'
p1439
I1427
sS'31272'
p1440
I611
sS'4324'
p1441
I826
sS'35995'
p1442
I700
sS'20214'
p1443
I394
sS'14759'
p1444
I274
sS'79684'
p1445
I1488
sS'94871'
p1446
I1760
sS'80991'
p1447
I1524
sS'88927'
p1448
I1655
sS'107361'
p1449
I134
sS'40523'
p1450
I776
sS'6934'
p1451
I1296
sS'15408'
p1452
I295
sS'8691'
p1453
I1627
sS'7706'
p1454
I1439
sS'39319'
p1455
I754
sS'61637'
p1456
I1159
sS'32'
p1457
I620
sS'86141'
p1458
I1615
sS'79593'
p1459
I1487
sS'35374'
p1460
I687
sS'336'
p1461
I660
sS'22546'
p1462
I434
sS'67926'
p1463
I1271
sS'4109'
p1464
I788
sS'103225'
p1465
I52
sS'87841'
p1466
I1640
sS'55395'
p1467
I1052
sS'66034'
p1468
I1246
sS'96606'
p1469
I1796
sS'107984'
p1470
I142
sS'7379'
p1471
I1383
sS'56171'
p1472
I1065
sS'12623'
p1473
I201
sS'32059'
p1474
I624
sS'96588'
p1475
I1794
sS'5959'
p1476
I1119
sS'76931'
p1477
I1436
sS'11535'
p1478
I166
sS'69459'
p1479
I1299
sS'98870'
p1480
I1839
sS'51722'
p1481
I982
sS'64649'
p1482
I1219
sS'98784'
p1483
I1838
sS'33045'
p1484
I649
sS'75803'
p1485
I1423
sS'35404'
p1486
I689
sS'22054'
p1487
I425
sS'55976'
p1488
I1059
sS'16626'
p1489
I329
sS'74577'
p1490
I1399
sS'97975'
p1491
I1824
sS'16193'
p1492
I319
sS'88108'
p1493
I1645
sS'11402'
p1494
I162
sS'12751'
p1495
I206
sS'93408'
p1496
I1737
sS'64738'
p1497
I1222
sS'56373'
p1498
I1066
sS'16998'
p1499
I339
sS'17462'
p1500
I349
sS'64395'
p1501
I1210
sS'9440'
p1502
I1754
sS'65423'
p1503
I1234
sS'79911'
p1504
I1496
sS'1887'
p1505
I373
sS'74379'
p1506
I1396
sS'2128'
p1507
I411
sS'4911'
p1508
I926
sS'11713'
p1509
I172
sS'96766'
p1510
I1799
sS'46766'
p1511
I881
sS'53104'
p1512
I1006
sS'57151'
p1513
I1081
sS'102589'
p1514
I39
sS'57443'
p1515
I1084
sS'62543'
p1516
I1178
sS'70613'
p1517
I1321
sS'48357'
p1518
I909
sS'36873'
p1519
I715
sS'45232'
p1520
I859
sS'75626'
p1521
I1421
sS'46901'
p1522
I885
sS'9985'
p1523
I1860
sS'75391'
p1524
I1414
sS'105581'
p1525
I97
sS'102909'
p1526
I45
sS'95587'
p1527
I1774
sS'9689'
p1528
I1802
sS'45129'
p1529
I855
sS'86388'
p1530
I1620
sS'18481'
p1531
I366
sS'10289'
p1532
I44
sS'71907'
p1533
I1345
sS'42841'
p1534
I819
sS'17711'
p1535
I356
sS'9660'
p1536
I1795
sS'60610'
p1537
I1134
sS'3568'
p1538
I695
sS'68439'
p1539
I1281
sS'106104'
p1540
I109
sS'21779'
p1541
I421
sS'41461'
p1542
I796
sS'4488'
p1543
I850
sS'102120'
p1544
I26
sS'102129'
p1545
I27
sS'18666'
p1546
I369
sS'71011'
p1547
I1330
sS'80924'
p1548
I1521
sS'57848'
p1549
I1088
sS'63236'
p1550
I1187
sS'106491'
p1551
I116
sS'83228'
p1552
I1558
sS'30118'
p1553
I590
sS'25810'
p1554
I495
sS'102722'
p1555
I41
sS'30443'
p1556
I597
sS'44987'
p1557
I853
sS'15526'
p1558
I298
sS'47559'
p1559
I895
sS'30848'
p1560
I605
sS'83001'
p1561
I1553
sS'30669'
p1562
I601
sS'95023'
p1563
I1763
sS'12994'
p1564
I216
sS'71493'
p1565
I1337
sS'39415'
p1566
I757
sS'24208'
p1567
I467
sS'11081'
p1568
I153
sS'2831'
p1569
I553
sS'47951'
p1570
I904
sS'91038'
p1571
I1691
sS'3396'
p1572
I666
sS'28550'
p1573
I559
sS'30201'
p1574
I592
sS'83640'
p1575
I1570
sS'83318'
p1576
I1559
sS'79054'
p1577
I1475
sS'72005'
p1578
I1346
sS'47778'
p1579
I900
sS'66824'
p1580
I1260
sS'44871'
p1581
I849
sS'18115'
p1582
I362
sS'27640'
p1583
I539
sS'13691'
p1584
I239
sS'26747'
p1585
I516
sS'106971'
p1586
I129
sS'91638'
p1587
I1706
sS'24510'
p1588
I474
sS'30064'
p1589
I588
sS'1505'
p1590
I284
sS'103185'
p1591
I50
sS'72179'
p1592
I1349
sS'3083'
p1593
I604
sS'66759'
p1594
I1258
sS'61392'
p1595
I1150
sS'34764'
p1596
I677
sS'8373'
p1597
I1573
sS'74967'
p1598
I1404
sS'73561'
p1599
I1377
sS'15807'
p1600
I309
sS'13804'
p1601
I244
sS'86012'
p1602
I1612
sS'61713'
p1603
I1160
sS'50917'
p1604
I966
sS'35745'
p1605
I696
sS'55147'
p1606
I1049
sS'13129'
p1607
I220
sS'31429'
p1608
I612
sS'22445'
p1609
I431
sS'32213'
p1610
I628
sS'77413'
p1611
I1446
sS'22681'
p1612
I437
sS'22688'
p1613
I438
sS'93070'
p1614
I1733
sS'13713'
p1615
I240
sS'82662'
p1616
I1547
sS'50628'
p1617
I959
sS'64120'
p1618
I1207
sS'87499'
p1619
I1634
sS'103522'
p1620
I60
sS'73539'
p1621
I1376
sS'12299'
p1622
I193
sS'96577'
p1623
I1793
sS'12506'
p1624
I198
sS'2330'
p1625
I450
sS'104426'
p1626
I78
sS'4717'
p1627
I889
sS'13629'
p1628
I236
sS'97770'
p1629
I1818
sS'25488'
p1630
I487
sS'98331'
p1631
I1831
sS'17187'
p1632
I343
sS'100981'
p1633
I8
sS'106378'
p1634
I115
sS'104605'
p1635
I79
sS'64476'
p1636
I1213
sS'49104'
p1637
I925
sS'12976'
p1638
I215
sS'32033'
p1639
I623
sS'13366'
p1640
I232
sS'2487'
p1641
I480
sS'75490'
p1642
I1416
sS'43678'
p1643
I833
sS'43070'
p1644
I823
sS'42074'
p1645
I808
sS'69717'
p1646
I1302
sS'85556'
p1647
I1606
sS'49031'
p1648
I923
sS'48618'
p1649
I920
sS'7396'
p1650
I1387
sS'21343'
p1651
I413
sS'2462'
p1652
I477
sS'10725'
p1653
I133
sS'10054'
p1654
I4
sS'63821'
p1655
I1200
sS'60756'
p1656
I1140
sS'79967'
p1657
I1498
sS'82395'
p1658
I1544
sS'22245'
p1659
I429
sS'60597'
p1660
I1133
sS'105242'
p1661
I93
sS'58898'
p1662
I1108
sS'33121'
p1663
I651
sS'38415'
p1664
I736
sS'54847'
p1665
I1045
sS'80683'
p1666
I1517
sS'53002'
p1667
I1003
sS'57030'
p1668
I1078
sS'70048'
p1669
I1312
sS'85410'
p1670
I1603
sS'99046'
p1671
I1844
sS'58871'
p1672
I1106
sS'59871'
p1673
I1123
sS'49363'
p1674
I932
sS'52717'
p1675
I998
sS'62997'
p1676
I1184
sS'58464'
p1677
I1099
sS'87302'
p1678
I1631
sS'9307'
p1679
I1732
sS'101819'
p1680
I22
sS'53624'
p1681
I1018
sS'10125'
p1682
I13
sS'38525'
p1683
I737
sS'95487'
p1684
I1773
sS'80359'
p1685
I1507
sS'54441'
p1686
I1036
sS'2934'
p1687
I570
sS'18588'
p1688
I368
sS'5323'
p1689
I1012
sS'91138'
p1690
I1694
sS'11896'
p1691
I181
sS'62195'
p1692
I1171
sS'14601'
p1693
I267
sS'76601'
p1694
I1430
sS'33139'
p1695
I652
sS'38668'
p1696
I740
sS'20181'
p1697
I393
sS'94054'
p1698
I1749
sS'79113'
p1699
I1476
sS'14288'
p1700
I258
sS'29949'
p1701
I585
sS'18720'
p1702
I370
sS'71735'
p1703
I1340
sS'83070'
p1704
I1555
sS'78607'
p1705
I1467
sS'85943'
p1706
I1611
sS'8216'
p1707
I1540
sS'95033'
p1708
I1764
sS'17807'
p1709
I358
sS'54153'
p1710
I1028
sS'73360'
p1711
I1373
sS'1423'
p1712
I257
sS'104999'
p1713
I89
sS'20235'
p1714
I396
sS'14735'
p1715
I273
sS'44278'
p1716
I838
sS'83675'
p1717
I1571
sS'38790'
p1718
I743
sS'23523'
p1719
I454
sS'1352'
p1720
I235
sS'89182'
p1721
I1659
sS'82630'
p1722
I1546
sS'15464'
p1723
I296
sS'14426'
p1724
I262
sS'11144'
p1725
I156
sS'72924'
p1726
I1366
sS'29167'
p1727
I569
sS'934'
p1728
I1736
sS'91868'
p1729
I1710
sS'36597'
p1730
I708
sS'35089'
p1731
I682
sS'82073'
p1732
I1537
sS'15260'
p1733
I291
sS'89560'
p1734
I1668
sS'27181'
p1735
I529
sS'15067'
p1736
I285
sS'27748'
p1737
I542
sS'15773'
p1738
I306
sS'91262'
p1739
I1696
sS'50387'
p1740
I952
sS'50438'
p1741
I954
sS'79486'
p1742
I1485
sS'28371'
p1743
I555
sS'35223'
p1744
I684
sS'16512'
p1745
I325
sS'16042'
p1746
I313
sS'81416'
p1747
I1530
sS'56555'
p1748
I1069
sS'19433'
p1749
I383
sS'55773'
p1750
I1055
sS'32518'
p1751
I635
sS'103884'
p1752
I66
sS'94211'
p1753
I1752
sS'25074'
p1754
I483
sS'16602'
p1755
I328
sS'98013'
p1756
I1825
sS'48697'
p1757
I921
sS'6120'
p1758
I1147
sS'73253'
p1759
I1370
sS'98495'
p1760
I1835
sS'69892'
p1761
I1308
sS'27166'
p1762
I528
sS'104291'
p1763
I74
sS'64867'
p1764
I1226
sS'97786'
p1765
I1819
sS'57284'
p1766
I1082
sS'38883'
p1767
I745
sS'55826'
p1768
I1056
sS'17397'
p1769
I347
sS'74391'
p1770
I1397
sS'2498'
p1771
I482
sS'39359'
p1772
I755
sS'11779'
p1773
I176
sS'32375'
p1774
I631
sS'52474'
p1775
I992
sS'104706'
p1776
I80
sS'45212'
p1777
I858
sS'63581'
p1778
I1194
sS'49591'
p1779
I936
sS'64040'
p1780
I1205
sS'22919'
p1781
I442
sS'102929'
p1782
I46
sS'58882'
p1783
I1107
sS'16867'
p1784
I334
sS'69167'
p1785
I1293
sS'11604'
p1786
I168
sS'53016'
p1787
I1004
sS'12155'
p1788
I191
sS'9469'
p1789
I1757
sS'26018'
p1790
I500
sS'44758'
p1791
I848
sS'20533'
p1792
I401
sS'70255'
p1793
I1317
sS'57999'
p1794
I1091
sS'58088'
p1795
I1093
sS'22617'
p1796
I436
sS'63458'
p1797
I1191
sS'10425'
p1798
I72
sS'38536'
p1799
I738
sS'8953'
p1800
I1666
sS'7275'
p1801
I1363
sS'8974'
p1802
I1671
sS'49683'
p1803
I937
sS'9796'
p1804
I1823
sS'15728'
p1805
I304
sS'102146'
p1806
I28
sS'14386'
p1807
I261
sS'44414'
p1808
I843
sS'104856'
p1809
I85
sS'14631'
p1810
I268
sS'101038'
p1811
I9
sS'80474'
p1812
I1511
sS'39755'
p1813
I764
sS'1987'
p1814
I391
sS'49978'
p1815
I945
sS'70497'
p1816
I1319
sS'89990'
p1817
I1676
sS'44303'
p1818
I839
sS'15092'
p1819
I286
sS'29480'
p1820
I574
sS'78674'
p1821
I1469
sS'8775'
p1822
I1638
sS'62070'
p1823
I1169
sS'41759'
p1824
I803
sS'24227'
p1825
I468
sS'7081'
p1826
I1325
sS'29555'
p1827
I577
sS'5424'
p1828
I1031
sS'62278'
p1829
I1173
sS'30261'
p1830
I594
sS'68360'
p1831
I1280
sS'59596'
p1832
I1120
sS'67640'
p1833
I1267
sS'84469'
p1834
I1588
sS'47996'
p1835
I905
sS'93867'
p1836
I1743
sS'76566'
p1837
I1429
sS'78703'
p1838
I1470
sS'99345'
p1839
I1852
sS'87760'
p1840
I1639
sS'27624'
p1841
I538
sS'50732'
p1842
I961
sS'66198'
p1843
I1249
sS'92476'
p1844
I1722
sS'58519'
p1845
I1100
sS'32088'
p1846
I625
sS'1296'
p1847
I214
sS'88800'
p1848
I1652
sS'12804'
p1849
I207
sS'23199'
p1850
I448
sS'8554'
p1851
I1605
sS'92177'
p1852
I1715
sS'47354'
p1853
I892
sS'7461'
p1854
I1400
sS'24404'
p1855
I473
sS'67063'
p1856
I1263
sS'83388'
p1857
I1563
sS'6548'
p1858
I1236
sS'8484'
p1859
I1596
sS'25936'
p1860
I499
sS'28206'
p1861
I551
s.